; Function Attrs: mustprogress nofree norecurse nosync nounwind memory(readwrite, inaccessiblemem: none) uwtable
define hidden void @_ZN22ComputeLinearScanOrder23clear_non_natural_loopsEP10BlockBegin(ptr nocapture noundef nonnull align 8 dereferenceable(200) %0, ptr nocapture noundef readonly %1) local_unnamed_addr #7 align 2 {
  %3 = getelementptr inbounds i8, ptr %0, i64 8
  %4 = load i32, ptr %3, align 8
  %5 = icmp sgt i32 %4, 0
  br i1 %5, label %.lr.ph26, label %._crit_edge27

.lr.ph26:                                         ; preds = %2
  %6 = getelementptr inbounds i8, ptr %0, i64 120
  %7 = getelementptr inbounds i8, ptr %1, i64 104
  %8 = getelementptr inbounds i8, ptr %0, i64 136
  %9 = getelementptr inbounds i8, ptr %0, i64 176
  %10 = getelementptr inbounds i8, ptr %0, i64 12
  %11 = zext nneg i32 %4 to i64
  br label %12

12:                                               ; preds = %.lr.ph26, %61
  %indvars.iv32 = phi i64 [ %11, %.lr.ph26 ], [ %indvars.iv.next33, %61 ]
  %indvars.iv.next33 = add nsw i64 %indvars.iv32, -1
  %13 = load i32, ptr %7, align 8
  %14 = sext i32 %13 to i64
  %15 = load i64, ptr %8, align 8
  %16 = mul i64 %15, %indvars.iv.next33
  %17 = add i64 %16, %14
  %18 = load ptr, ptr %6, align 8
  %19 = lshr i64 %17, 6
  %20 = getelementptr inbounds i64, ptr %18, i64 %19
  %21 = load i64, ptr %20, align 8
  %22 = and i64 %17, 63
  %23 = shl nuw i64 1, %22
  %24 = and i64 %23, %21
  %.not = icmp eq i64 %24, 0
  br i1 %.not, label %61, label %25

25:                                               ; preds = %12
  %26 = load ptr, ptr %9, align 8
  %27 = getelementptr inbounds ptr, ptr %26, i64 %indvars.iv.next33
  %28 = load ptr, ptr %27, align 8
  %29 = getelementptr inbounds i8, ptr %28, i64 160
  %30 = load i32, ptr %29, align 4
  %31 = icmp sgt i32 %30, 0
  br i1 %31, label %.lr.ph, label %._crit_edge

.lr.ph:                                           ; preds = %25
  %32 = getelementptr inbounds i8, ptr %28, i64 168
  br label %33

33:                                               ; preds = %.lr.ph, %33
  %indvars.iv = phi i64 [ 0, %.lr.ph ], [ %indvars.iv.next, %33 ]
  %34 = load ptr, ptr %32, align 8
  %35 = getelementptr inbounds ptr, ptr %34, i64 %indvars.iv
  %36 = load ptr, ptr %35, align 8
  %37 = getelementptr inbounds i8, ptr %36, i64 132
  %38 = load i32, ptr %37, align 4
  %39 = and i32 %38, -1025
  store i32 %39, ptr %37, align 4
  %indvars.iv.next = add nuw nsw i64 %indvars.iv, 1
  %40 = load i32, ptr %29, align 4
  %41 = sext i32 %40 to i64
  %42 = icmp slt i64 %indvars.iv.next, %41
  br i1 %42, label %33, label %._crit_edge, !llvm.loop !15

._crit_edge:                                      ; preds = %33, %25
  %43 = getelementptr inbounds i8, ptr %28, i64 132
  %44 = load i32, ptr %43, align 4
  %45 = and i32 %44, -513
  store i32 %45, ptr %43, align 4
  %46 = load i32, ptr %0, align 8
  %47 = icmp sgt i32 %46, 0
  br i1 %47, label %.lr.ph21.preheader, label %._crit_edge22

.lr.ph21.preheader:                               ; preds = %._crit_edge
  %48 = zext nneg i32 %46 to i64
  br label %.lr.ph21

.lr.ph21:                                         ; preds = %.lr.ph21.preheader, %.lr.ph21
  %indvars.iv29 = phi i64 [ %48, %.lr.ph21.preheader ], [ %indvars.iv.next30, %.lr.ph21 ]
  %indvars.iv.next30 = add nsw i64 %indvars.iv29, -1
  %49 = load i64, ptr %8, align 8
  %50 = mul i64 %49, %indvars.iv.next33
  %51 = add i64 %50, %indvars.iv.next30
  %52 = and i64 %51, 63
  %53 = shl nuw i64 1, %52
  %54 = xor i64 %53, -1
  %55 = load ptr, ptr %6, align 8
  %56 = lshr i64 %51, 6
  %57 = getelementptr inbounds i64, ptr %55, i64 %56
  %58 = load i64, ptr %57, align 8
  %59 = and i64 %58, %54
  store i64 %59, ptr %57, align 8
  %60 = icmp ugt i64 %indvars.iv29, 1
  br i1 %60, label %.lr.ph21, label %._crit_edge22, !llvm.loop !16

._crit_edge22:                                    ; preds = %.lr.ph21, %._crit_edge
  store i8 1, ptr %10, align 4
  br label %61

61:                                               ; preds = %12, %._crit_edge22
  %62 = icmp sgt i64 %indvars.iv32, 1
  br i1 %62, label %12, label %._crit_edge27, !llvm.loop !17

._crit_edge27:                                    ; preds = %61, %2
  ret void
}